; Function Attrs: mustprogress uwtable
define void @_ZN5Ipopt9IpoptData16AcceptTrialPointEv(ptr nocapture noundef nonnull align 8 dereferenceable(2232) %0) local_unnamed_addr #3 align 2 {
  %2 = getelementptr inbounds i8, ptr %0, i64 24
  %3 = getelementptr inbounds i8, ptr %0, i64 16
  %4 = load ptr, ptr %2, align 8
  %.not.i.i.i.i = icmp eq ptr %4, null
  br i1 %.not.i.i.i.i, label %9, label %5

5:                                                ; preds = %1
  %6 = getelementptr inbounds i8, ptr %4, i64 8
  %7 = load i32, ptr %6, align 8
  %8 = add nsw i32 %7, 1
  store i32 %8, ptr %6, align 8
  br label %9

9:                                                ; preds = %5, %1
  %10 = load ptr, ptr %3, align 8
  %.not.i.i.i.i.i = icmp eq ptr %10, null
  br i1 %.not.i.i.i.i.i, label %_ZN5Ipopt9IpoptData18CopyTrialToCurrentEv.exit, label %11

11:                                               ; preds = %9
  %12 = getelementptr inbounds i8, ptr %10, i64 8
  %13 = load i32, ptr %12, align 8
  %14 = add nsw i32 %13, -1
  store i32 %14, ptr %12, align 8
  %15 = load ptr, ptr %3, align 8
  %16 = getelementptr inbounds i8, ptr %15, i64 8
  %17 = load i32, ptr %16, align 8
  %18 = icmp eq i32 %17, 0
  br i1 %18, label %19, label %_ZN5Ipopt9IpoptData18CopyTrialToCurrentEv.exit

19:                                               ; preds = %11
  %20 = load ptr, ptr %15, align 8
  %21 = getelementptr inbounds i8, ptr %20, i64 8
  %22 = load ptr, ptr %21, align 8
  tail call void %22(ptr noundef nonnull align 8 dereferenceable(280) %15) #11
  br label %_ZN5Ipopt9IpoptData18CopyTrialToCurrentEv.exit

_ZN5Ipopt9IpoptData18CopyTrialToCurrentEv.exit:   ; preds = %9, %11, %19
  store ptr %4, ptr %3, align 8
  %23 = load ptr, ptr %2, align 8
  %.not.i.i.i = icmp eq ptr %23, null
  br i1 %.not.i.i.i, label %_ZN5Ipopt8SmartPtrIKNS_14IteratesVectorEEaSEPS2_.exit, label %24

24:                                               ; preds = %_ZN5Ipopt9IpoptData18CopyTrialToCurrentEv.exit
  %25 = getelementptr inbounds i8, ptr %23, i64 8
  %26 = load i32, ptr %25, align 8
  %27 = add nsw i32 %26, -1
  store i32 %27, ptr %25, align 8
  %28 = load ptr, ptr %2, align 8
  %29 = getelementptr inbounds i8, ptr %28, i64 8
  %30 = load i32, ptr %29, align 8
  %31 = icmp eq i32 %30, 0
  br i1 %31, label %32, label %_ZN5Ipopt8SmartPtrIKNS_14IteratesVectorEEaSEPS2_.exit

32:                                               ; preds = %24
  %33 = load ptr, ptr %28, align 8
  %34 = getelementptr inbounds i8, ptr %33, i64 8
  %35 = load ptr, ptr %34, align 8
  tail call void %35(ptr noundef nonnull align 8 dereferenceable(280) %28) #11
  br label %_ZN5Ipopt8SmartPtrIKNS_14IteratesVectorEEaSEPS2_.exit

_ZN5Ipopt8SmartPtrIKNS_14IteratesVectorEEaSEPS2_.exit: ; preds = %_ZN5Ipopt9IpoptData18CopyTrialToCurrentEv.exit, %24, %32
  store ptr null, ptr %2, align 8
  %36 = getelementptr inbounds i8, ptr %0, i64 56
  %37 = load ptr, ptr %36, align 8
  %.not.i.i.i1 = icmp eq ptr %37, null
  br i1 %.not.i.i.i1, label %_ZN5Ipopt8SmartPtrIKNS_14IteratesVectorEEaSEPS2_.exit2, label %38

38:                                               ; preds = %_ZN5Ipopt8SmartPtrIKNS_14IteratesVectorEEaSEPS2_.exit
  %39 = getelementptr inbounds i8, ptr %37, i64 8
  %40 = load i32, ptr %39, align 8
  %41 = add nsw i32 %40, -1
  store i32 %41, ptr %39, align 8
  %42 = load ptr, ptr %36, align 8
  %43 = getelementptr inbounds i8, ptr %42, i64 8
  %44 = load i32, ptr %43, align 8
  %45 = icmp eq i32 %44, 0
  br i1 %45, label %46, label %_ZN5Ipopt8SmartPtrIKNS_14IteratesVectorEEaSEPS2_.exit2

46:                                               ; preds = %38
  %47 = load ptr, ptr %42, align 8
  %48 = getelementptr inbounds i8, ptr %47, i64 8
  %49 = load ptr, ptr %48, align 8
  tail call void %49(ptr noundef nonnull align 8 dereferenceable(280) %42) #11
  br label %_ZN5Ipopt8SmartPtrIKNS_14IteratesVectorEEaSEPS2_.exit2

_ZN5Ipopt8SmartPtrIKNS_14IteratesVectorEEaSEPS2_.exit2: ; preds = %_ZN5Ipopt8SmartPtrIKNS_14IteratesVectorEEaSEPS2_.exit, %38, %46
  store ptr null, ptr %36, align 8
  %50 = getelementptr inbounds i8, ptr %0, i64 48
  store i8 0, ptr %50, align 8
  %51 = getelementptr inbounds i8, ptr %0, i64 64
  store i8 0, ptr %51, align 8
  %52 = getelementptr inbounds i8, ptr %0, i64 2192
  %53 = load ptr, ptr %52, align 8
  %.not = icmp eq ptr %53, null
  br i1 %.not, label %58, label %54

54:                                               ; preds = %_ZN5Ipopt8SmartPtrIKNS_14IteratesVectorEEaSEPS2_.exit2
  %55 = load ptr, ptr %53, align 8
  %56 = getelementptr inbounds i8, ptr %55, i64 32
  %57 = load ptr, ptr %56, align 8
  tail call void %57(ptr noundef nonnull align 8 dereferenceable(12) %53)
  br label %58

58:                                               ; preds = %54, %_ZN5Ipopt8SmartPtrIKNS_14IteratesVectorEEaSEPS2_.exit2
  ret void
}